target datalayout = "e-m:e-p270:32:32-p271:32:32-p272:64:64-i64:64-i128:128-f80:128-n8:16:32:64-S128"
target triple = "x86_64-pc-linux-gnu"

%struct.tm = type { i32, i32, i32, i32, i32, i32, i32, i32, i32, i64, ptr }

; Function Attrs: nounwind uwtable
define dso_local i32 @ASN1_TIME_to_tm(ptr noundef %0, ptr noundef %1) #0 {
  %3 = alloca i32, align 4
  %4 = alloca ptr, align 8
  %5 = alloca ptr, align 8
  %6 = alloca i64, align 8
  %7 = alloca i32, align 4
  store ptr %0, ptr %4, align 8, !tbaa !13
  store ptr %1, ptr %5, align 8, !tbaa !15
  %8 = load ptr, ptr %4, align 8, !tbaa !13
  %9 = icmp eq ptr %8, null
  br i1 %9, label %10, label %19

10:                                               ; preds = %2
  call void @llvm.lifetime.start.p0(i64 8, ptr %6) #7
  %11 = call i64 @time(ptr noundef %6) #7
  %12 = load ptr, ptr %5, align 8, !tbaa !15
  call void @llvm.memset.p0.i64(ptr align 8 %12, i8 0, i64 56, i1 false)
  %13 = load ptr, ptr %5, align 8, !tbaa !15
  %14 = call ptr @OPENSSL_gmtime(ptr noundef %6, ptr noundef %13)
  %15 = icmp ne ptr %14, null
  br i1 %15, label %16, label %17

16:                                               ; preds = %10
  store i32 1, ptr %3, align 4
  store i32 1, ptr %7, align 4
  br label %18

17:                                               ; preds = %10
  store i32 0, ptr %3, align 4
  store i32 1, ptr %7, align 4
  br label %18

18:                                               ; preds = %17, %16
  call void @llvm.lifetime.end.p0(i64 8, ptr %6) #7
  br label %23

19:                                               ; preds = %2
  %20 = load ptr, ptr %5, align 8, !tbaa !15
  %21 = load ptr, ptr %4, align 8, !tbaa !13
  %22 = call i32 @ossl_asn1_time_to_tm(ptr noundef %20, ptr noundef %21)
  store i32 %22, ptr %3, align 4
  br label %23

23:                                               ; preds = %19, %18
  %24 = load i32, ptr %3, align 4
  ret i32 %24
}

; Function Attrs: nounwind uwtable
define dso_local i32 @ASN1_TIME_cmp_time_t(ptr noundef %0, i64 noundef %1) #0 {
  %3 = alloca i32, align 4
  %4 = alloca ptr, align 8
  %5 = alloca i64, align 8
  %6 = alloca %struct.tm, align 8
  %7 = alloca %struct.tm, align 8
  %8 = alloca i32, align 4
  %9 = alloca i32, align 4
  %10 = alloca i32, align 4
  store ptr %0, ptr %4, align 8, !tbaa !13
  store i64 %1, ptr %5, align 8, !tbaa !11
  call void @llvm.lifetime.start.p0(i64 56, ptr %6) #7
  call void @llvm.lifetime.start.p0(i64 56, ptr %7) #7
  call void @llvm.lifetime.start.p0(i64 4, ptr %8) #7
  call void @llvm.lifetime.start.p0(i64 4, ptr %9) #7
  %11 = load ptr, ptr %4, align 8, !tbaa !13
  %12 = call i32 @ASN1_TIME_to_tm(ptr noundef %11, ptr noundef %6)
  %13 = icmp ne i32 %12, 0
  br i1 %13, label %15, label %14

14:                                               ; preds = %2
  store i32 -2, ptr %3, align 4
  store i32 1, ptr %10, align 4
  br label %38

15:                                               ; preds = %2
  %16 = call ptr @OPENSSL_gmtime(ptr noundef %5, ptr noundef %7)
  %17 = icmp ne ptr %16, null
  br i1 %17, label %19, label %18

18:                                               ; preds = %15
  store i32 -2, ptr %3, align 4
  store i32 1, ptr %10, align 4
  br label %38

19:                                               ; preds = %15
  %20 = call i32 @OPENSSL_gmtime_diff(ptr noundef %8, ptr noundef %9, ptr noundef %7, ptr noundef %6)
  %21 = icmp ne i32 %20, 0
  br i1 %21, label %23, label %22

22:                                               ; preds = %19
  store i32 -2, ptr %3, align 4
  store i32 1, ptr %10, align 4
  br label %38

23:                                               ; preds = %19
  %24 = load i32, ptr %8, align 4, !tbaa !17
  %25 = icmp sgt i32 %24, 0
  br i1 %25, label %29, label %26

26:                                               ; preds = %23
  %27 = load i32, ptr %9, align 4, !tbaa !17
  %28 = icmp sgt i32 %27, 0
  br i1 %28, label %29, label %30

29:                                               ; preds = %26, %23
  store i32 1, ptr %3, align 4
  store i32 1, ptr %10, align 4
  br label %38

30:                                               ; preds = %26
  %31 = load i32, ptr %8, align 4, !tbaa !17
  %32 = icmp slt i32 %31, 0
  br i1 %32, label %36, label %33

33:                                               ; preds = %30
  %34 = load i32, ptr %9, align 4, !tbaa !17
  %35 = icmp slt i32 %34, 0
  br i1 %35, label %36, label %37

36:                                               ; preds = %33, %30
  store i32 -1, ptr %3, align 4
  store i32 1, ptr %10, align 4
  br label %38

37:                                               ; preds = %33
  store i32 0, ptr %3, align 4
  store i32 1, ptr %10, align 4
  br label %38

38:                                               ; preds = %37, %36, %29, %22, %18, %14
  call void @llvm.lifetime.end.p0(i64 4, ptr %9) #7
  call void @llvm.lifetime.end.p0(i64 4, ptr %8) #7
  call void @llvm.lifetime.end.p0(i64 56, ptr %7) #7
  call void @llvm.lifetime.end.p0(i64 56, ptr %6) #7
  %39 = load i32, ptr %3, align 4
  ret i32 %39
}