; Function Attrs: nounwind uwtable
define dso_local range(i32 -2, 2) i32 @ASN1_TIME_cmp_time_t(ptr noundef readonly captures(address_is_null) %0, i64 noundef %1) local_unnamed_addr #1 {
  %3 = alloca i64, align 8
  %4 = alloca i64, align 8
  %5 = alloca %struct.tm, align 8
  %6 = alloca %struct.tm, align 8
  %7 = alloca i32, align 4
  %8 = alloca i32, align 4
  store i64 %1, ptr %4, align 8, !tbaa !31
  call void @llvm.lifetime.start.p0(i64 56, ptr nonnull %5) #8
  call void @llvm.lifetime.start.p0(i64 56, ptr nonnull %6) #8
  call void @llvm.lifetime.start.p0(i64 4, ptr nonnull %7) #8
  call void @llvm.lifetime.start.p0(i64 4, ptr nonnull %8) #8
  %9 = icmp eq ptr %0, null
  br i1 %9, label %10, label %ASN1_TIME_to_tm.exit

10:                                               ; preds = %2
  call void @llvm.lifetime.start.p0(i64 8, ptr nonnull %3) #8
  %11 = call i64 @time(ptr noundef nonnull %3) #8
  call void @llvm.memset.p0.i64(ptr noundef nonnull align 8 dereferenceable(56) %5, i8 0, i64 56, i1 false)
  %12 = call ptr @OPENSSL_gmtime(ptr noundef nonnull %3, ptr noundef nonnull %5) #8
  %.not.i.not = icmp eq ptr %12, null
  call void @llvm.lifetime.end.p0(i64 8, ptr nonnull %3) #8
  br i1 %.not.i.not, label %27, label %15

ASN1_TIME_to_tm.exit:                             ; preds = %2
  %13 = call i32 @ossl_asn1_time_to_tm(ptr noundef nonnull %5, ptr noundef nonnull readonly %0)
  %14 = icmp eq i32 %13, 0
  br i1 %14, label %27, label %15

15:                                               ; preds = %10, %ASN1_TIME_to_tm.exit
  %16 = call ptr @OPENSSL_gmtime(ptr noundef nonnull %4, ptr noundef nonnull %6) #8
  %.not6 = icmp eq ptr %16, null
  br i1 %.not6, label %27, label %17

17:                                               ; preds = %15
  %18 = call i32 @OPENSSL_gmtime_diff(ptr noundef nonnull %7, ptr noundef nonnull %8, ptr noundef nonnull %6, ptr noundef nonnull %5) #8
  %.not7 = icmp eq i32 %18, 0
  br i1 %.not7, label %27, label %19

19:                                               ; preds = %17
  %20 = load i32, ptr %7, align 4, !tbaa !16
  %21 = icmp sgt i32 %20, 0
  %22 = load i32, ptr %8, align 4
  %23 = icmp sgt i32 %22, 0
  %or.cond = select i1 %21, i1 true, i1 %23
  br i1 %or.cond, label %27, label %24

24:                                               ; preds = %19
  %25 = icmp slt i32 %20, 0
  %26 = icmp slt i32 %22, 0
  %or.cond3 = select i1 %25, i1 true, i1 %26
  %. = sext i1 %or.cond3 to i32
  br label %27

27:                                               ; preds = %10, %24, %19, %17, %15, %ASN1_TIME_to_tm.exit
  %.0 = phi i32 [ -2, %ASN1_TIME_to_tm.exit ], [ -2, %15 ], [ -2, %17 ], [ 1, %19 ], [ %., %24 ], [ -2, %10 ]
  call void @llvm.lifetime.end.p0(i64 4, ptr nonnull %8) #8
  call void @llvm.lifetime.end.p0(i64 4, ptr nonnull %7) #8
  call void @llvm.lifetime.end.p0(i64 56, ptr nonnull %6) #8
  call void @llvm.lifetime.end.p0(i64 56, ptr nonnull %5) #8
  ret i32 %.0
}